; Function Attrs: nounwind uwtable
define dso_local range(i64 0, 4294967296) i64 @regtypein(ptr noundef readonly captures(none) %0) #0 {
  %2 = alloca i64, align 8
  %3 = alloca i32, align 4
  %4 = alloca i32, align 4
  %5 = getelementptr inbounds nuw i8, ptr %0, i64 32
  %6 = load i64, ptr %5, align 8
  %7 = inttoptr i64 %6 to ptr
  %8 = getelementptr inbounds nuw i8, ptr %0, i64 8
  %9 = load ptr, ptr %8, align 8
  call void @llvm.lifetime.start.p0(i64 4, ptr nonnull %3) #9
  call void @llvm.lifetime.start.p0(i64 4, ptr nonnull %4) #9
  %10 = load i8, ptr %7, align 1
  %.not.i = icmp eq i8 %10, 45
  br i1 %.not.i, label %.tail.i, label %14

.tail.i:                                          ; preds = %1
  %11 = getelementptr inbounds nuw i8, ptr %7, i64 1
  %12 = load i8, ptr %11, align 1
  %13 = icmp eq i8 %12, 0
  br i1 %13, label %32, label %24

14:                                               ; preds = %1
  %15 = add i8 %10, -48
  %or.cond.i.i = icmp ult i8 %15, 10
  br i1 %or.cond.i.i, label %16, label %24

16:                                               ; preds = %14
  %17 = tail call i64 @strspn(ptr noundef nonnull %7, ptr noundef nonnull @.str.39) #8
  %18 = tail call i64 @strlen(ptr noundef nonnull dereferenceable(1) %7) #8
  %19 = icmp eq i64 %17, %18
  br i1 %19, label %20, label %24

20:                                               ; preds = %16
  call void @llvm.lifetime.start.p0(i64 8, ptr nonnull %2) #9
  %21 = call zeroext i1 @DirectInputFunctionCallSafe(ptr noundef nonnull @oidin, ptr noundef nonnull %7, i32 noundef 0, i32 noundef -1, ptr noundef %9, ptr noundef nonnull %2) #9
  %22 = load i64, ptr %2, align 8
  %23 = trunc i64 %22 to i32
  call void @llvm.lifetime.end.p0(i64 8, ptr nonnull %2) #9
  br label %32

24:                                               ; preds = %16, %14, %.tail.i
  store i32 0, ptr %3, align 4
  %25 = load i32, ptr @Mode, align 4
  %26 = icmp eq i32 %25, 0
  br i1 %26, label %27, label %30

27:                                               ; preds = %24
  %28 = tail call zeroext i1 @errstart_cold(i32 noundef 21, ptr noundef null) #10
  tail call void @llvm.assume(i1 %28)
  %29 = tail call i32 (ptr, ...) @errmsg_internal(ptr noundef nonnull @.str.29) #9
  tail call void @errfinish(ptr noundef nonnull @.str.1, i32 noundef 1191, ptr noundef nonnull @__func__.regtypein) #9
  unreachable

30:                                               ; preds = %24
  %31 = call zeroext i1 @parseTypeString(ptr noundef nonnull %7, ptr noundef nonnull %3, ptr noundef nonnull %4, ptr noundef %9) #9
  %.0.in.pre = load i32, ptr %3, align 4
  br label %32

32:                                               ; preds = %.tail.i, %20, %30
  %.0.in = phi i32 [ %23, %20 ], [ %.0.in.pre, %30 ], [ 0, %.tail.i ]
  %.0 = zext i32 %.0.in to i64
  call void @llvm.lifetime.end.p0(i64 4, ptr nonnull %4) #9
  call void @llvm.lifetime.end.p0(i64 4, ptr nonnull %3) #9
  ret i64 %.0
}